target datalayout = "e-m:e-p270:32:32-p271:32:32-p272:64:64-i64:64-i128:128-f80:128-n8:16:32:64-S128"
target triple = "x86_64-unknown-linux-gnu"

%struct.grpc_plugin_credentials = type { %struct.grpc_call_credentials.base, %struct.grpc_metadata_credentials_plugin }
%struct.grpc_call_credentials.base = type <{ %"class.grpc_core::RefCounted", i32 }>
%"class.grpc_core::RefCounted" = type { %"class.grpc_core::PolymorphicRefCount", %"class.grpc_core::RefCount" }
%"class.grpc_core::PolymorphicRefCount" = type { ptr }
%"class.grpc_core::RefCount" = type { %"struct.std::atomic.0" }
%"struct.std::atomic.0" = type { %"struct.std::__atomic_base.1" }
%"struct.std::__atomic_base.1" = type { i64 }
%struct.grpc_metadata_credentials_plugin = type { ptr, ptr, ptr, ptr, ptr }

; Function Attrs: mustprogress nounwind uwtable
define linkonce_odr void @_ZN9grpc_core19PolymorphicRefCountD2Ev(ptr noundef nonnull align 8 dereferenceable(8) %this) unnamed_addr #4 comdat align 2 {
entry:
  %this.addr = alloca ptr, align 8
  store ptr %this, ptr %this.addr, align 8
  ret void
}

; Function Attrs: mustprogress nounwind uwtable
define linkonce_odr void @_ZN9grpc_core10RefCountedI21grpc_call_credentialsNS_19PolymorphicRefCountENS_11UnrefDeleteEED2Ev(ptr noundef nonnull align 8 dereferenceable(16) %this) unnamed_addr #4 comdat align 2 {
entry:
  %this.addr = alloca ptr, align 8
  store ptr %this, ptr %this.addr, align 8
  %this1 = load ptr, ptr %this.addr, align 8
  call void @_ZN9grpc_core19PolymorphicRefCountD2Ev(ptr noundef nonnull align 8 dereferenceable(8) %this1) #3
  ret void
}

; Function Attrs: mustprogress nounwind uwtable
define linkonce_odr void @_ZN21grpc_call_credentialsD2Ev(ptr noundef nonnull align 8 dereferenceable(20) %this) unnamed_addr #4 comdat align 2 {
entry:
  %this.addr = alloca ptr, align 8
  store ptr %this, ptr %this.addr, align 8
  %this1 = load ptr, ptr %this.addr, align 8
  call void @_ZN9grpc_core10RefCountedI21grpc_call_credentialsNS_19PolymorphicRefCountENS_11UnrefDeleteEED2Ev(ptr noundef nonnull align 8 dereferenceable(16) %this1) #3
  ret void
}

; Function Attrs: mustprogress nounwind uwtable
define void @_ZN23grpc_plugin_credentialsD2Ev(ptr noundef nonnull align 8 dereferenceable(64) %this) unnamed_addr #4 align 2 personality ptr @__gxx_personality_v0 {
entry:
  %this.addr = alloca ptr, align 8
  store ptr %this, ptr %this.addr, align 8
  %this1 = load ptr, ptr %this.addr, align 8
  %plugin_ = getelementptr inbounds %struct.grpc_plugin_credentials, ptr %this1, i32 0, i32 1
  %state = getelementptr inbounds %struct.grpc_metadata_credentials_plugin, ptr %plugin_, i32 0, i32 3
  %0 = load ptr, ptr %state, align 8
  %cmp = icmp ne ptr %0, null
  br i1 %cmp, label %land.lhs.true, label %if.end

land.lhs.true:                                    ; preds = %entry
  %plugin_2 = getelementptr inbounds %struct.grpc_plugin_credentials, ptr %this1, i32 0, i32 1
  %destroy = getelementptr inbounds %struct.grpc_metadata_credentials_plugin, ptr %plugin_2, i32 0, i32 2
  %1 = load ptr, ptr %destroy, align 8
  %cmp3 = icmp ne ptr %1, null
  br i1 %cmp3, label %if.then, label %if.end

if.then:                                          ; preds = %land.lhs.true
  %plugin_4 = getelementptr inbounds %struct.grpc_plugin_credentials, ptr %this1, i32 0, i32 1
  %destroy5 = getelementptr inbounds %struct.grpc_metadata_credentials_plugin, ptr %plugin_4, i32 0, i32 2
  %2 = load ptr, ptr %destroy5, align 8
  %plugin_6 = getelementptr inbounds %struct.grpc_plugin_credentials, ptr %this1, i32 0, i32 1
  %state7 = getelementptr inbounds %struct.grpc_metadata_credentials_plugin, ptr %plugin_6, i32 0, i32 3
  %3 = load ptr, ptr %state7, align 8
  invoke void %2(ptr noundef %3)
          to label %invoke.cont unwind label %terminate.lpad

invoke.cont:                                      ; preds = %if.then
  br label %if.end

if.end:                                           ; preds = %invoke.cont, %land.lhs.true, %entry
  call void @_ZN21grpc_call_credentialsD2Ev(ptr noundef nonnull align 8 dereferenceable(20) %this1) #3
  ret void

terminate.lpad:                                   ; preds = %if.then
  %4 = landingpad { ptr, i32 }
          catch ptr null
  %5 = extractvalue { ptr, i32 } %4, 0
  call void @__clang_call_terminate(ptr %5) #16
  unreachable
}