; Function Attrs: mustprogress nounwind uwtable
define void @_ZN23grpc_plugin_credentialsD2Ev(ptr nocapture noundef nonnull readonly align 8 dereferenceable(64) %this) unnamed_addr #3 align 2 personality ptr @__gxx_personality_v0 {
entry:
  %state = getelementptr inbounds i8, ptr %this, i64 48
  %0 = load ptr, ptr %state, align 8
  %cmp.not = icmp eq ptr %0, null
  br i1 %cmp.not, label %if.end, label %land.lhs.true

land.lhs.true:                                    ; preds = %entry
  %destroy = getelementptr inbounds i8, ptr %this, i64 40
  %1 = load ptr, ptr %destroy, align 8
  %cmp3.not = icmp eq ptr %1, null
  br i1 %cmp3.not, label %if.end, label %if.then

if.then:                                          ; preds = %land.lhs.true
  invoke void %1(ptr noundef nonnull %0)
          to label %if.end unwind label %terminate.lpad

if.end:                                           ; preds = %if.then, %land.lhs.true, %entry
  ret void

terminate.lpad:                                   ; preds = %if.then
  %2 = landingpad { ptr, i32 }
          catch ptr null
  %3 = extractvalue { ptr, i32 } %2, 0
  tail call void @__clang_call_terminate(ptr %3) #22
  unreachable
}